; Function Attrs: inlinehint mustprogress optsize uwtable
define internal noundef ptr @"_ZZN8nanobind6detail11func_createILb0ELb1EZL32nanobind_init_test_functions_extRNS_7module_EE4$_83NS_5tupleEJiiEJLm0ELm1EEJNS_5scopeENS_4nameENS_7kw_onlyENS_3argES9_EEEP7_objectOT1_PFT2_DpT3_ESt16integer_sequenceImJXspT4_EEEDpRKT5_ENUlPvPSB_PhNS_9rv_policyEPNS0_12cleanup_listEE_8__invokeESP_SQ_SR_SS_SU_"(ptr readnone captures(none) %0, ptr noundef readonly captures(none) %1, ptr noundef readonly captures(none) %2, i32 %3, ptr readnone captures(none) %4) #15 align 2 personality ptr @__gxx_personality_v0 {
  %6 = alloca i32, align 4
  %7 = alloca i32, align 4
  %8 = alloca %"struct.nanobind::detail::tuple.216", align 4
  %9 = alloca %"class.nanobind::tuple", align 8
  call void @llvm.lifetime.start.p0(i64 8, ptr nonnull %8) #27
  %10 = getelementptr inbounds nuw i8, ptr %8, i64 4
  %11 = load ptr, ptr %1, align 8, !tbaa !158
  %12 = load i8, ptr %2, align 1, !tbaa !41
  %13 = call noundef zeroext i1 @_ZN8nanobind6detail8load_i32EP7_objecthPi(ptr noundef %11, i8 noundef zeroext %12, ptr noundef nonnull align 4 dereferenceable(4) %10) #31
  br i1 %13, label %14, label %"_ZZN8nanobind6detail11func_createILb0ELb1EZL32nanobind_init_test_functions_extRNS_7module_EE4$_83NS_5tupleEJiiEJLm0ELm1EEJNS_5scopeENS_4nameENS_7kw_onlyENS_3argES9_EEEP7_objectOT1_PFT2_DpT3_ESt16integer_sequenceImJXspT4_EEEDpRKT5_ENKUlPvPSB_PhNS_9rv_policyEPNS0_12cleanup_listEE_clESP_SQ_SR_SS_SU_.exit"

14:                                               ; preds = %5
  %15 = getelementptr inbounds nuw i8, ptr %1, i64 8
  %16 = load ptr, ptr %15, align 8, !tbaa !158
  %17 = getelementptr inbounds nuw i8, ptr %2, i64 1
  %18 = load i8, ptr %17, align 1, !tbaa !41
  %19 = call noundef zeroext i1 @_ZN8nanobind6detail8load_i32EP7_objecthPi(ptr noundef %16, i8 noundef zeroext %18, ptr noundef nonnull align 4 dereferenceable(4) %8) #31
  br i1 %19, label %20, label %"_ZZN8nanobind6detail11func_createILb0ELb1EZL32nanobind_init_test_functions_extRNS_7module_EE4$_83NS_5tupleEJiiEJLm0ELm1EEJNS_5scopeENS_4nameENS_7kw_onlyENS_3argES9_EEEP7_objectOT1_PFT2_DpT3_ESt16integer_sequenceImJXspT4_EEEDpRKT5_ENKUlPvPSB_PhNS_9rv_policyEPNS0_12cleanup_listEE_clESP_SQ_SR_SS_SU_.exit"

20:                                               ; preds = %14
  call void @llvm.lifetime.start.p0(i64 8, ptr nonnull %9) #27
  %21 = load i32, ptr %10, align 4, !tbaa !36
  %22 = load i32, ptr %8, align 4, !tbaa !36
  call void @llvm.lifetime.start.p0(i64 4, ptr nonnull %6)
  call void @llvm.lifetime.start.p0(i64 4, ptr nonnull %7)
  store i32 %21, ptr %6, align 4, !tbaa !36, !noalias !378
  store i32 %22, ptr %7, align 4, !tbaa !36, !noalias !378
  call void @_ZN8nanobind10make_tupleILNS_9rv_policyE0EJRiS2_EEENS_5tupleEDpOT0_(ptr dead_on_unwind nonnull writable sret(%"class.nanobind::tuple") align 8 %9, ptr noundef nonnull align 4 dereferenceable(4) %6, ptr noundef nonnull align 4 dereferenceable(4) %7) #28
  call void @llvm.lifetime.end.p0(i64 4, ptr nonnull %6)
  call void @llvm.lifetime.end.p0(i64 4, ptr nonnull %7)
  %23 = load ptr, ptr %9, align 8, !tbaa !44
  store ptr null, ptr %9, align 8, !tbaa !44
  %24 = call noundef nonnull align 8 dereferenceable(8) ptr @_ZNKR8nanobind6handle7dec_refEv(ptr noundef nonnull align 8 dereferenceable(8) %9) #31
  call void @llvm.lifetime.end.p0(i64 8, ptr nonnull %9) #27
  br label %"_ZZN8nanobind6detail11func_createILb0ELb1EZL32nanobind_init_test_functions_extRNS_7module_EE4$_83NS_5tupleEJiiEJLm0ELm1EEJNS_5scopeENS_4nameENS_7kw_onlyENS_3argES9_EEEP7_objectOT1_PFT2_DpT3_ESt16integer_sequenceImJXspT4_EEEDpRKT5_ENKUlPvPSB_PhNS_9rv_policyEPNS0_12cleanup_listEE_clESP_SQ_SR_SS_SU_.exit"

"_ZZN8nanobind6detail11func_createILb0ELb1EZL32nanobind_init_test_functions_extRNS_7module_EE4$_83NS_5tupleEJiiEJLm0ELm1EEJNS_5scopeENS_4nameENS_7kw_onlyENS_3argES9_EEEP7_objectOT1_PFT2_DpT3_ESt16integer_sequenceImJXspT4_EEEDpRKT5_ENKUlPvPSB_PhNS_9rv_policyEPNS0_12cleanup_listEE_clESP_SQ_SR_SS_SU_.exit": ; preds = %5, %14, %20
  %.0.i = phi ptr [ %23, %20 ], [ inttoptr (i64 1 to ptr), %14 ], [ inttoptr (i64 1 to ptr), %5 ]
  call void @llvm.lifetime.end.p0(i64 8, ptr nonnull %8) #27
  ret ptr %.0.i
}